---
triple:          'x86_64-apple-darwin'
binary-path:     '/Users/seungjin/CPP2409-P/src/asset_management'
relocations:
  - { offsetInCU: 0x2FF6, offset: 0x2FF6, size: 0x8, addend: 0x0, symName: __ZNSt3__124__put_character_sequenceB8ue170006IcNS_11char_traitsIcEEEERNS_13basic_ostreamIT_T0_EES7_PKS4_m, symObjAddr: 0x960, symBinAddr: 0x1000014C0, symSize: 0x1F0 }
  - { offsetInCU: 0x6D20, offset: 0x6D20, size: 0x8, addend: 0x0, symName: __ZNSt3__1lsB8ue170006INS_11char_traitsIcEEEERNS_13basic_ostreamIcT_EES6_PKc, symObjAddr: 0x490, symBinAddr: 0x100000FF0, symSize: 0x40 }
  - { offsetInCU: 0x6D66, offset: 0x6D66, size: 0x8, addend: 0x0, symName: __ZNSt3__14endlB8ue170006IcNS_11char_traitsIcEEEERNS_13basic_ostreamIT_T0_EES7_, symObjAddr: 0x4F0, symBinAddr: 0x100001050, symSize: 0x50 }
  - { offsetInCU: 0x6DA6, offset: 0x6DA6, size: 0x8, addend: 0x0, symName: __ZNSt3__116__pad_and_outputB8ue170006IcNS_11char_traitsIcEEEENS_19ostreambuf_iteratorIT_T0_EES6_PKS4_S8_S8_RNS_8ios_baseES4_, symObjAddr: 0xBA0, symBinAddr: 0x100001700, symSize: 0x220 }
  - { offsetInCU: 0x6E76, offset: 0x6E76, size: 0x8, addend: 0x0, symName: __ZNSt3__112__to_addressB8ue170006IKcEEPT_S3_, symObjAddr: 0x10C0, symBinAddr: 0x100001C20, symSize: 0x10 }
  - { offsetInCU: 0x6EDE, offset: 0x6EDE, size: 0x8, addend: 0x0, symName: __ZNSt3__19use_facetB8ue170006INS_5ctypeIcEEEERKT_RKNS_6localeE, symObjAddr: 0x1320, symBinAddr: 0x100001E80, symSize: 0x30 }
  - { offsetInCU: 0x73AB, offset: 0x73AB, size: 0x8, addend: 0x0, symName: __ZNSt3__118__constexpr_strlenB8ue170006EPKc, symObjAddr: 0x13B0, symBinAddr: 0x100001F10, symSize: 0x20 }
  - { offsetInCU: 0x73D7, offset: 0x73D7, size: 0x8, addend: 0x0, symName: __ZNSt3__17getlineB8ue170006IcNS_11char_traitsIcEENS_9allocatorIcEEEERNS_13basic_istreamIT_T0_EES9_RNS_12basic_stringIS6_S7_T1_EE, symObjAddr: 0x13F0, symBinAddr: 0x100001F50, symSize: 0x50 }
  - { offsetInCU: 0x742F, offset: 0x742F, size: 0x8, addend: 0x0, symName: __ZNSt3__1lsB8ue170006IcNS_11char_traitsIcEENS_9allocatorIcEEEERNS_13basic_ostreamIT_T0_EES9_RKNS_12basic_stringIS6_S7_T1_EE, symObjAddr: 0x15E0, symBinAddr: 0x100002140, symSize: 0x50 }
  - { offsetInCU: 0x7487, offset: 0x7487, size: 0x8, addend: 0x0, symName: __ZNSt3__17getlineB8ue170006IcNS_11char_traitsIcEENS_9allocatorIcEEEERNS_13basic_istreamIT_T0_EES9_RNS_12basic_stringIS6_S7_T1_EES6_, symObjAddr: 0x1700, symBinAddr: 0x100002260, symSize: 0x220 }
  - { offsetInCU: 0x7D05, offset: 0x7D05, size: 0x8, addend: 0x0, symName: __ZNSt3__112__to_addressB8ue170006I11TransactionEEPT_S3_, symObjAddr: 0x2020, symBinAddr: 0x100002B80, symSize: 0x10 }
  - { offsetInCU: 0x7D3A, offset: 0x7D3A, size: 0x8, addend: 0x0, symName: __ZNSt3__13maxB8ue170006ImEERKT_S3_S3_, symObjAddr: 0x2520, symBinAddr: 0x100003080, symSize: 0x30 }
  - { offsetInCU: 0x7D7D, offset: 0x7D7D, size: 0x8, addend: 0x0, symName: __ZNSt3__13minB8ue170006ImEERKT_S3_S3_, symObjAddr: 0x2550, symBinAddr: 0x1000030B0, symSize: 0x30 }
  - { offsetInCU: 0x7FC1, offset: 0x7FC1, size: 0x8, addend: 0x0, symName: __ZNSt3__13minB8ue170006ImNS_6__lessIvvEEEERKT_S5_S5_T0_, symObjAddr: 0x25D0, symBinAddr: 0x100003130, symSize: 0x50 }
  - { offsetInCU: 0x8060, offset: 0x8060, size: 0x8, addend: 0x0, symName: __ZNSt3__120__throw_length_errorB8ue170006EPKc, symObjAddr: 0x26B0, symBinAddr: 0x100003210, symSize: 0x70 }
  - { offsetInCU: 0x808A, offset: 0x808A, size: 0x8, addend: 0x0, symName: __ZNSt3__13maxB8ue170006ImNS_6__lessIvvEEEERKT_S5_S5_T0_, symObjAddr: 0x27E0, symBinAddr: 0x100003340, symSize: 0x50 }
  - { offsetInCU: 0x80E4, offset: 0x80E4, size: 0x8, addend: 0x0, symName: __ZNSt3__119__allocate_at_leastB8ue170006INS_9allocatorI11TransactionEEEENS_19__allocation_resultINS_16allocator_traitsIT_E7pointerEEERS6_m, symObjAddr: 0x2920, symBinAddr: 0x100003480, symSize: 0x40 }
  - { offsetInCU: 0x8127, offset: 0x8127, size: 0x8, addend: 0x0, symName: __ZNSt3__117__libcpp_allocateB8ue170006Emm, symObjAddr: 0x2A90, symBinAddr: 0x1000035F0, symSize: 0x20 }
  - { offsetInCU: 0x8164, offset: 0x8164, size: 0x8, addend: 0x0, symName: __ZNSt3__121__libcpp_operator_newB8ue170006IJmEEEPvDpT_, symObjAddr: 0x2AB0, symBinAddr: 0x100003610, symSize: 0x20 }
  - { offsetInCU: 0x819D, offset: 0x819D, size: 0x8, addend: 0x0, symName: __ZNSt3__142__uninitialized_allocator_move_if_noexceptB8ue170006INS_9allocatorI11TransactionEENS_16reverse_iteratorIPS2_EES6_S6_EET2_RT_T0_T1_S7_, symObjAddr: 0x2BE0, symBinAddr: 0x100003740, symSize: 0x180 }
  - { offsetInCU: 0x823C, offset: 0x823C, size: 0x8, addend: 0x0, symName: __ZNSt3__14swapB8ue170006IP11TransactionEENS_9enable_ifIXaasr21is_move_constructibleIT_EE5valuesr18is_move_assignableIS4_EE5valueEvE4typeERS4_S7_, symObjAddr: 0x2DB0, symBinAddr: 0x100003910, symSize: 0x40 }
  - { offsetInCU: 0x828D, offset: 0x828D, size: 0x8, addend: 0x0, symName: __ZNSt3__122__make_exception_guardB8ue170006INS_29_AllocatorDestroyRangeReverseINS_9allocatorI11TransactionEENS_16reverse_iteratorIPS3_EEEEEENS_28__exception_guard_exceptionsIT_EESA_, symObjAddr: 0x2ED0, symBinAddr: 0x100003A30, symSize: 0x60 }
  - { offsetInCU: 0x82C2, offset: 0x82C2, size: 0x8, addend: 0x0, symName: __ZNSt3__1neB8ue170006IP11TransactionS2_EEbRKNS_16reverse_iteratorIT_EERKNS3_IT0_EE, symObjAddr: 0x2F70, symBinAddr: 0x100003AD0, symSize: 0x40 }
  - { offsetInCU: 0x830E, offset: 0x830E, size: 0x8, addend: 0x0, symName: __ZNSt3__112__to_addressB8ue170006INS_16reverse_iteratorIP11TransactionEEvEEu7__decayIDTclsr19__to_address_helperIT_EE6__callclsr3stdE7declvalIRKS5_EEEEES7_, symObjAddr: 0x2FB0, symBinAddr: 0x100003B10, symSize: 0x20 }
  - { offsetInCU: 0x836D, offset: 0x836D, size: 0x8, addend: 0x0, symName: __ZNSt3__119__allocator_destroyB8ue170006INS_9allocatorI11TransactionEENS_16reverse_iteratorINS4_IPS2_EEEES7_EEvRT_T0_T1_, symObjAddr: 0x32A0, symBinAddr: 0x100003E00, symSize: 0x70 }
  - { offsetInCU: 0x83D0, offset: 0x83D0, size: 0x8, addend: 0x0, symName: __ZNSt3__1neB8ue170006INS_16reverse_iteratorIP11TransactionEES4_EEbRKNS1_IT_EERKNS1_IT0_EE, symObjAddr: 0x3340, symBinAddr: 0x100003EA0, symSize: 0x50 }
  - { offsetInCU: 0x841C, offset: 0x841C, size: 0x8, addend: 0x0, symName: __ZNSt3__112__to_addressB8ue170006INS_16reverse_iteratorINS1_IP11TransactionEEEEvEEu7__decayIDTclsr19__to_address_helperIT_EE6__callclsr3stdE7declvalIRKS6_EEEEES8_, symObjAddr: 0x33C0, symBinAddr: 0x100003F20, symSize: 0x20 }
  - { offsetInCU: 0x847B, offset: 0x847B, size: 0x8, addend: 0x0, symName: __ZNSt3__119__libcpp_deallocateB8ue170006EPvmm, symObjAddr: 0x3780, symBinAddr: 0x1000042E0, symSize: 0x30 }
  - { offsetInCU: 0x84C3, offset: 0x84C3, size: 0x8, addend: 0x0, symName: __ZNSt3__127__do_deallocate_handle_sizeB8ue170006IJEEEvPvmDpT_, symObjAddr: 0x37B0, symBinAddr: 0x100004310, symSize: 0x20 }
  - { offsetInCU: 0x8501, offset: 0x8501, size: 0x8, addend: 0x0, symName: __ZNSt3__124__libcpp_operator_deleteB8ue170006IJPvEEEvDpT_, symObjAddr: 0x37D0, symBinAddr: 0x100004330, symSize: 0x20 }
  - { offsetInCU: 0x8552, offset: 0x8552, size: 0x8, addend: 0x0, symName: __ZNSt3__1miB8ue170006IPK11TransactionS3_EEDTmicldtfp_4baseEcldtfp0_4baseEERKNS_11__wrap_iterIT_EERKNS5_IT0_EE, symObjAddr: 0x3C60, symBinAddr: 0x1000047C0, symSize: 0x40 }
  - { offsetInCU: 0x859E, offset: 0x859E, size: 0x8, addend: 0x0, symName: __ZNSt3__14moveB8ue170006IP11TransactionS2_EET0_T_S4_S3_, symObjAddr: 0x3D20, symBinAddr: 0x100004880, symSize: 0x40 }
  - { offsetInCU: 0x85F8, offset: 0x85F8, size: 0x8, addend: 0x0, symName: __ZNSt3__16__moveB8ue170006INS_17_ClassicAlgPolicyEP11TransactionS3_S3_EENS_4pairIT0_T2_EES5_T1_S6_, symObjAddr: 0x3F80, symBinAddr: 0x100004AE0, symSize: 0x40 }
  - { offsetInCU: 0x8664, offset: 0x8664, size: 0x8, addend: 0x0, symName: __ZNSt3__123__dispatch_copy_or_moveB8ue170006INS_17_ClassicAlgPolicyENS_11__move_loopIS1_EENS_14__move_trivialEP11TransactionS6_S6_EENS_4pairIT2_T4_EES8_T3_S9_, symObjAddr: 0x3FC0, symBinAddr: 0x100004B20, symSize: 0x40 }
  - { offsetInCU: 0x86E2, offset: 0x86E2, size: 0x8, addend: 0x0, symName: __ZNSt3__121__unwrap_and_dispatchB8ue170006INS_10__overloadINS_11__move_loopINS_17_ClassicAlgPolicyEEENS_14__move_trivialEEEP11TransactionS8_S8_Li0EEENS_4pairIT0_T2_EESA_T1_SB_, symObjAddr: 0x4000, symBinAddr: 0x100004B60, symSize: 0xB0 }
  - { offsetInCU: 0x8771, offset: 0x8771, size: 0x8, addend: 0x0, symName: __ZNSt3__114__unwrap_rangeB8ue170006IP11TransactionS2_EENS_4pairIT0_S4_EET_S6_, symObjAddr: 0x40B0, symBinAddr: 0x100004C10, symSize: 0x50 }
  - { offsetInCU: 0x88EC, offset: 0x88EC, size: 0x8, addend: 0x0, symName: __ZNSt3__113__unwrap_iterB8ue170006IP11TransactionNS_18__unwrap_iter_implIS2_Lb1EEELi0EEEDTclsrT0_8__unwrapclsr3stdE7declvalIT_EEEES6_, symObjAddr: 0x4180, symBinAddr: 0x100004CE0, symSize: 0x20 }
  - { offsetInCU: 0x8930, offset: 0x8930, size: 0x8, addend: 0x0, symName: __ZNSt3__19make_pairB8ue170006IP11TransactionS2_EENS_4pairINS_18__unwrap_ref_decayIT_E4typeENS4_IT0_E4typeEEEOS5_OS8_, symObjAddr: 0x41A0, symBinAddr: 0x100004D00, symSize: 0x30 }
  - { offsetInCU: 0x897F, offset: 0x897F, size: 0x8, addend: 0x0, symName: __ZNSt3__114__rewrap_rangeB8ue170006IP11TransactionS2_EET_S3_T0_, symObjAddr: 0x41D0, symBinAddr: 0x100004D30, symSize: 0x30 }
  - { offsetInCU: 0x89CB, offset: 0x89CB, size: 0x8, addend: 0x0, symName: __ZNSt3__113__rewrap_iterB8ue170006IP11TransactionS2_NS_18__unwrap_iter_implIS2_Lb1EEEEET_S5_T0_, symObjAddr: 0x4200, symBinAddr: 0x100004D60, symSize: 0x40 }
  - { offsetInCU: 0x8ADD, offset: 0x8ADD, size: 0x8, addend: 0x0, symName: __ZNSt3__1neB8ue170006IPK11TransactionEEbRKNS_11__wrap_iterIT_EES8_, symObjAddr: 0x5520, symBinAddr: 0x100006080, symSize: 0x30 }
  - { offsetInCU: 0x8B20, offset: 0x8B20, size: 0x8, addend: 0x0, symName: __ZNSt3__1eqB8ue170006IPK11TransactionEEbRKNS_11__wrap_iterIT_EES8_, symObjAddr: 0x5590, symBinAddr: 0x1000060F0, symSize: 0x40 }
  - { offsetInCU: 0x8DDC, offset: 0x8DDC, size: 0x8, addend: 0x0, symName: __ZSt28__throw_bad_array_new_lengthB8ue170006v, symObjAddr: 0x2A50, symBinAddr: 0x1000035B0, symSize: 0x40 }
  - { offsetInCU: 0x9404, offset: 0x9404, size: 0x8, addend: 0x0, symName: __ZNSt3__16vectorI11TransactionNS_9allocatorIS1_EEE26__swap_out_circular_bufferERNS_14__split_bufferIS1_RS3_EE, symObjAddr: 0x2320, symBinAddr: 0x100002E80, symSize: 0x120 }
  - { offsetInCU: 0xB787, offset: 0xB787, size: 0x8, addend: 0x0, symName: _main, symObjAddr: 0x0, symBinAddr: 0x100000B60, symSize: 0x80 }
  - { offsetInCU: 0xB9D1, offset: 0xB9D1, size: 0x8, addend: 0x0, symName: __ZN17YearBudgetManagerC1Ev, symObjAddr: 0x80, symBinAddr: 0x100000BE0, symSize: 0x20 }
  - { offsetInCU: 0xB9FC, offset: 0xB9FC, size: 0x8, addend: 0x0, symName: __ZN17YearBudgetManager19manageMonthlyBudgetEv, symObjAddr: 0xA0, symBinAddr: 0x100000C00, symSize: 0x1A0 }
  - { offsetInCU: 0xBA3E, offset: 0xBA3E, size: 0x8, addend: 0x0, symName: __ZN17YearBudgetManagerD1Ev, symObjAddr: 0x240, symBinAddr: 0x100000DA0, symSize: 0x20 }
  - { offsetInCU: 0xBA69, offset: 0xBA69, size: 0x8, addend: 0x0, symName: __ZN17YearBudgetManagerC2Ev, symObjAddr: 0x260, symBinAddr: 0x100000DC0, symSize: 0x70 }
  - { offsetInCU: 0xBA94, offset: 0xBA94, size: 0x8, addend: 0x0, symName: __ZN13BudgetManagerC1Ev, symObjAddr: 0x2D0, symBinAddr: 0x100000E30, symSize: 0x20 }
  - { offsetInCU: 0xBABF, offset: 0xBABF, size: 0x8, addend: 0x0, symName: __ZNSt3__16vectorI11TransactionNS_9allocatorIS1_EEEC1B8ue170006Ev, symObjAddr: 0x2F0, symBinAddr: 0x100000E50, symSize: 0x20 }
  - { offsetInCU: 0xBAE8, offset: 0xBAE8, size: 0x8, addend: 0x0, symName: __ZN13BudgetManagerC2Ev, symObjAddr: 0x310, symBinAddr: 0x100000E70, symSize: 0x40 }
  - { offsetInCU: 0xBB13, offset: 0xBB13, size: 0x8, addend: 0x0, symName: __ZNSt3__16vectorI11TransactionNS_9allocatorIS1_EEEC2B8ue170006Ev, symObjAddr: 0x350, symBinAddr: 0x100000EB0, symSize: 0x50 }
  - { offsetInCU: 0xBB46, offset: 0xBB46, size: 0x8, addend: 0x0, symName: __ZNSt3__117__compressed_pairIP11TransactionNS_9allocatorIS1_EEEC1B8ue170006IDnNS_18__default_init_tagEEEOT_OT0_, symObjAddr: 0x3A0, symBinAddr: 0x100000F00, symSize: 0x30 }
  - { offsetInCU: 0xBB9D, offset: 0xBB9D, size: 0x8, addend: 0x0, symName: __ZNSt3__117__compressed_pairIP11TransactionNS_9allocatorIS1_EEEC2B8ue170006IDnNS_18__default_init_tagEEEOT_OT0_, symObjAddr: 0x3E0, symBinAddr: 0x100000F40, symSize: 0x40 }
  - { offsetInCU: 0xBBF4, offset: 0xBBF4, size: 0x8, addend: 0x0, symName: __ZNSt3__122__compressed_pair_elemIP11TransactionLi0ELb0EEC2B8ue170006IDnvEEOT_, symObjAddr: 0x420, symBinAddr: 0x100000F80, symSize: 0x20 }
  - { offsetInCU: 0xBC35, offset: 0xBC35, size: 0x8, addend: 0x0, symName: __ZNSt3__122__compressed_pair_elemINS_9allocatorI11TransactionEELi1ELb1EEC2B8ue170006ENS_18__default_init_tagE, symObjAddr: 0x440, symBinAddr: 0x100000FA0, symSize: 0x20 }
  - { offsetInCU: 0xBC69, offset: 0xBC69, size: 0x8, addend: 0x0, symName: __ZNSt3__19allocatorI11TransactionEC2B8ue170006Ev, symObjAddr: 0x460, symBinAddr: 0x100000FC0, symSize: 0x20 }
  - { offsetInCU: 0xBC92, offset: 0xBC92, size: 0x8, addend: 0x0, symName: __ZNSt3__116__non_trivial_ifILb1ENS_9allocatorI11TransactionEEEC2B8ue170006Ev, symObjAddr: 0x480, symBinAddr: 0x100000FE0, symSize: 0x10 }
  - { offsetInCU: 0xBCBB, offset: 0xBCBB, size: 0x8, addend: 0x0, symName: __ZNSt3__113basic_ostreamIcNS_11char_traitsIcEEElsB8ue170006EPFRS3_S4_E, symObjAddr: 0x4D0, symBinAddr: 0x100001030, symSize: 0x20 }
  - { offsetInCU: 0xBCEE, offset: 0xBCEE, size: 0x8, addend: 0x0, symName: __ZN17YearBudgetManager15addFixedExpenseEv, symObjAddr: 0x540, symBinAddr: 0x1000010A0, symSize: 0x2A0 }
  - { offsetInCU: 0xBD4C, offset: 0xBD4C, size: 0x8, addend: 0x0, symName: __ZN17YearBudgetManager18deleteFixedExpenseEv, symObjAddr: 0x7E0, symBinAddr: 0x100001340, symSize: 0xA0 }
  - { offsetInCU: 0xBD9C, offset: 0xBD9C, size: 0x8, addend: 0x0, symName: __ZN17YearBudgetManager11selectMonthEv, symObjAddr: 0x880, symBinAddr: 0x1000013E0, symSize: 0xE0 }
  - { offsetInCU: 0xBDCF, offset: 0xBDCF, size: 0x8, addend: 0x0, symName: __ZNSt3__111char_traitsIcE6lengthB8ue170006EPKc, symObjAddr: 0xB50, symBinAddr: 0x1000016B0, symSize: 0x30 }
  - { offsetInCU: 0xBE10, offset: 0xBE10, size: 0x8, addend: 0x0, symName: __ZNKSt3__113basic_ostreamIcNS_11char_traitsIcEEE6sentrycvbB8ue170006Ev, symObjAddr: 0xB80, symBinAddr: 0x1000016E0, symSize: 0x20 }
  - { offsetInCU: 0xBE35, offset: 0xBE35, size: 0x8, addend: 0x0, symName: __ZNSt3__119ostreambuf_iteratorIcNS_11char_traitsIcEEEC1B8ue170006ERNS_13basic_ostreamIcS2_EE, symObjAddr: 0xDC0, symBinAddr: 0x100001920, symSize: 0x30 }
  - { offsetInCU: 0xBE6B, offset: 0xBE6B, size: 0x8, addend: 0x0, symName: __ZNKSt3__18ios_base5flagsB8ue170006Ev, symObjAddr: 0xDF0, symBinAddr: 0x100001950, symSize: 0x20 }
  - { offsetInCU: 0xBE91, offset: 0xBE91, size: 0x8, addend: 0x0, symName: __ZNKSt3__19basic_iosIcNS_11char_traitsIcEEE4fillB8ue170006Ev, symObjAddr: 0xE10, symBinAddr: 0x100001970, symSize: 0x70 }
  - { offsetInCU: 0xBEB8, offset: 0xBEB8, size: 0x8, addend: 0x0, symName: __ZNKSt3__119ostreambuf_iteratorIcNS_11char_traitsIcEEE6failedB8ue170006Ev, symObjAddr: 0xE80, symBinAddr: 0x1000019E0, symSize: 0x20 }
  - { offsetInCU: 0xBEDD, offset: 0xBEDD, size: 0x8, addend: 0x0, symName: __ZNSt3__19basic_iosIcNS_11char_traitsIcEEE8setstateB8ue170006Ej, symObjAddr: 0xEA0, symBinAddr: 0x100001A00, symSize: 0x30 }
  - { offsetInCU: 0xBF10, offset: 0xBF10, size: 0x8, addend: 0x0, symName: __ZNKSt3__18ios_base5widthB8ue170006Ev, symObjAddr: 0xED0, symBinAddr: 0x100001A30, symSize: 0x20 }
  - { offsetInCU: 0xBF37, offset: 0xBF37, size: 0x8, addend: 0x0, symName: __ZNSt3__115basic_streambufIcNS_11char_traitsIcEEE5sputnB8ue170006EPKcl, symObjAddr: 0xEF0, symBinAddr: 0x100001A50, symSize: 0x30 }
  - { offsetInCU: 0xBF78, offset: 0xBF78, size: 0x8, addend: 0x0, symName: __ZNSt3__112basic_stringIcNS_11char_traitsIcEENS_9allocatorIcEEEC1B8ue170006Emc, symObjAddr: 0xF20, symBinAddr: 0x100001A80, symSize: 0x30 }
  - { offsetInCU: 0xBFBF, offset: 0xBFBF, size: 0x8, addend: 0x0, symName: __ZNKSt3__112basic_stringIcNS_11char_traitsIcEENS_9allocatorIcEEE4dataB8ue170006Ev, symObjAddr: 0xF50, symBinAddr: 0x100001AB0, symSize: 0x30 }
  - { offsetInCU: 0xBFE3, offset: 0xBFE3, size: 0x8, addend: 0x0, symName: __ZNSt3__18ios_base5widthB8ue170006El, symObjAddr: 0xF80, symBinAddr: 0x100001AE0, symSize: 0x30 }
  - { offsetInCU: 0xC028, offset: 0xC028, size: 0x8, addend: 0x0, symName: __ZNSt3__112basic_stringIcNS_11char_traitsIcEENS_9allocatorIcEEEC2B8ue170006Emc, symObjAddr: 0xFB0, symBinAddr: 0x100001B10, symSize: 0x50 }
  - { offsetInCU: 0xC06F, offset: 0xC06F, size: 0x8, addend: 0x0, symName: __ZNSt3__117__compressed_pairINS_12basic_stringIcNS_11char_traitsIcEENS_9allocatorIcEEE5__repES5_EC1B8ue170006INS_18__default_init_tagESA_EEOT_OT0_, symObjAddr: 0x1000, symBinAddr: 0x100001B60, symSize: 0x30 }
  - { offsetInCU: 0xC0C6, offset: 0xC0C6, size: 0x8, addend: 0x0, symName: __ZNSt3__117__compressed_pairINS_12basic_stringIcNS_11char_traitsIcEENS_9allocatorIcEEE5__repES5_EC2B8ue170006INS_18__default_init_tagESA_EEOT_OT0_, symObjAddr: 0x1030, symBinAddr: 0x100001B90, symSize: 0x30 }
  - { offsetInCU: 0xC11D, offset: 0xC11D, size: 0x8, addend: 0x0, symName: __ZNSt3__122__compressed_pair_elemINS_12basic_stringIcNS_11char_traitsIcEENS_9allocatorIcEEE5__repELi0ELb0EEC2B8ue170006ENS_18__default_init_tagE, symObjAddr: 0x1060, symBinAddr: 0x100001BC0, symSize: 0x10 }
  - { offsetInCU: 0xC151, offset: 0xC151, size: 0x8, addend: 0x0, symName: __ZNSt3__122__compressed_pair_elemINS_9allocatorIcEELi1ELb1EEC2B8ue170006ENS_18__default_init_tagE, symObjAddr: 0x1070, symBinAddr: 0x100001BD0, symSize: 0x20 }
  - { offsetInCU: 0xC185, offset: 0xC185, size: 0x8, addend: 0x0, symName: __ZNSt3__19allocatorIcEC2B8ue170006Ev, symObjAddr: 0x1090, symBinAddr: 0x100001BF0, symSize: 0x20 }
  - { offsetInCU: 0xC1AE, offset: 0xC1AE, size: 0x8, addend: 0x0, symName: __ZNSt3__116__non_trivial_ifILb1ENS_9allocatorIcEEEC2B8ue170006Ev, symObjAddr: 0x10B0, symBinAddr: 0x100001C10, symSize: 0x10 }
  - { offsetInCU: 0xC1D7, offset: 0xC1D7, size: 0x8, addend: 0x0, symName: __ZNKSt3__112basic_stringIcNS_11char_traitsIcEENS_9allocatorIcEEE13__get_pointerB8ue170006Ev, symObjAddr: 0x10D0, symBinAddr: 0x100001C30, symSize: 0x50 }
  - { offsetInCU: 0xC1FC, offset: 0xC1FC, size: 0x8, addend: 0x0, symName: __ZNKSt3__112basic_stringIcNS_11char_traitsIcEENS_9allocatorIcEEE9__is_longB8ue170006Ev, symObjAddr: 0x1120, symBinAddr: 0x100001C80, symSize: 0x30 }
  - { offsetInCU: 0xC221, offset: 0xC221, size: 0x8, addend: 0x0, symName: __ZNKSt3__112basic_stringIcNS_11char_traitsIcEENS_9allocatorIcEEE18__get_long_pointerB8ue170006Ev, symObjAddr: 0x1150, symBinAddr: 0x100001CB0, symSize: 0x20 }
  - { offsetInCU: 0xC246, offset: 0xC246, size: 0x8, addend: 0x0, symName: __ZNKSt3__112basic_stringIcNS_11char_traitsIcEENS_9allocatorIcEEE19__get_short_pointerB8ue170006Ev, symObjAddr: 0x1170, symBinAddr: 0x100001CD0, symSize: 0x30 }
  - { offsetInCU: 0xC26B, offset: 0xC26B, size: 0x8, addend: 0x0, symName: __ZNKSt3__117__compressed_pairINS_12basic_stringIcNS_11char_traitsIcEENS_9allocatorIcEEE5__repES5_E5firstB8ue170006Ev, symObjAddr: 0x11A0, symBinAddr: 0x100001D00, symSize: 0x20 }
  - { offsetInCU: 0xC290, offset: 0xC290, size: 0x8, addend: 0x0, symName: __ZNKSt3__122__compressed_pair_elemINS_12basic_stringIcNS_11char_traitsIcEENS_9allocatorIcEEE5__repELi0ELb0EE5__getB8ue170006Ev, symObjAddr: 0x11C0, symBinAddr: 0x100001D20, symSize: 0x10 }
  - { offsetInCU: 0xC2B5, offset: 0xC2B5, size: 0x8, addend: 0x0, symName: __ZNSt3__114pointer_traitsIPKcE10pointer_toB8ue170006ERS1_, symObjAddr: 0x11D0, symBinAddr: 0x100001D30, symSize: 0x10 }
  - { offsetInCU: 0xC2D8, offset: 0xC2D8, size: 0x8, addend: 0x0, symName: __ZNSt3__119ostreambuf_iteratorIcNS_11char_traitsIcEEEC2B8ue170006ERNS_13basic_ostreamIcS2_EE, symObjAddr: 0x11E0, symBinAddr: 0x100001D40, symSize: 0x50 }
  - { offsetInCU: 0xC30E, offset: 0xC30E, size: 0x8, addend: 0x0, symName: __ZNKSt3__19basic_iosIcNS_11char_traitsIcEEE5rdbufB8ue170006Ev, symObjAddr: 0x1230, symBinAddr: 0x100001D90, symSize: 0x20 }
  - { offsetInCU: 0xC335, offset: 0xC335, size: 0x8, addend: 0x0, symName: __ZNKSt3__18ios_base5rdbufB8ue170006Ev, symObjAddr: 0x1250, symBinAddr: 0x100001DB0, symSize: 0x20 }
  - { offsetInCU: 0xC35A, offset: 0xC35A, size: 0x8, addend: 0x0, symName: __ZNSt3__111char_traitsIcE11eq_int_typeB8ue170006Eii, symObjAddr: 0x1270, symBinAddr: 0x100001DD0, symSize: 0x20 }
  - { offsetInCU: 0xC38D, offset: 0xC38D, size: 0x8, addend: 0x0, symName: __ZNSt3__111char_traitsIcE3eofB8ue170006Ev, symObjAddr: 0x1290, symBinAddr: 0x100001DF0, symSize: 0x10 }
  - { offsetInCU: 0xC3A0, offset: 0xC3A0, size: 0x8, addend: 0x0, symName: __ZNKSt3__19basic_iosIcNS_11char_traitsIcEEE5widenB8ue170006Ec, symObjAddr: 0x12A0, symBinAddr: 0x100001E00, symSize: 0x80 }
  - { offsetInCU: 0xC40D, offset: 0xC40D, size: 0x8, addend: 0x0, symName: __ZNKSt3__15ctypeIcE5widenB8ue170006Ec, symObjAddr: 0x1350, symBinAddr: 0x100001EB0, symSize: 0x30 }
  - { offsetInCU: 0xC440, offset: 0xC440, size: 0x8, addend: 0x0, symName: __ZNSt3__18ios_base8setstateB8ue170006Ej, symObjAddr: 0x1380, symBinAddr: 0x100001EE0, symSize: 0x30 }
  - { offsetInCU: 0xC476, offset: 0xC476, size: 0x8, addend: 0x0, symName: __ZNSt3__112basic_stringIcNS_11char_traitsIcEENS_9allocatorIcEEEC1B8ue170006Ev, symObjAddr: 0x13D0, symBinAddr: 0x100001F30, symSize: 0x20 }
  - { offsetInCU: 0xC49F, offset: 0xC49F, size: 0x8, addend: 0x0, symName: __ZN13BudgetManager15setFixedExpenseEiRKNSt3__112basic_stringIcNS0_11char_traitsIcEENS0_9allocatorIcEEEE, symObjAddr: 0x1440, symBinAddr: 0x100001FA0, symSize: 0xF0 }
  - { offsetInCU: 0xC4DF, offset: 0xC4DF, size: 0x8, addend: 0x0, symName: __ZNSt3__16vectorI11TransactionNS_9allocatorIS1_EEE9push_backB8ue170006EOS1_, symObjAddr: 0x1530, symBinAddr: 0x100002090, symSize: 0x60 }
  - { offsetInCU: 0xC51A, offset: 0xC51A, size: 0x8, addend: 0x0, symName: __ZNSt3__112basic_stringIcNS_11char_traitsIcEENS_9allocatorIcEEEC1B8ue170006ILi0EEEPKc, symObjAddr: 0x1590, symBinAddr: 0x1000020F0, symSize: 0x30 }
  - { offsetInCU: 0xC55D, offset: 0xC55D, size: 0x8, addend: 0x0, symName: __ZN11TransactionD1Ev, symObjAddr: 0x15C0, symBinAddr: 0x100002120, symSize: 0x20 }
  - { offsetInCU: 0xC588, offset: 0xC588, size: 0x8, addend: 0x0, symName: __ZNSt3__112basic_stringIcNS_11char_traitsIcEENS_9allocatorIcEEEC2B8ue170006Ev, symObjAddr: 0x1630, symBinAddr: 0x100002190, symSize: 0x50 }
  - { offsetInCU: 0xC5B1, offset: 0xC5B1, size: 0x8, addend: 0x0, symName: __ZNSt3__112basic_stringIcNS_11char_traitsIcEENS_9allocatorIcEEE14__default_initB8ue170006Ev, symObjAddr: 0x1680, symBinAddr: 0x1000021E0, symSize: 0x50 }
  - { offsetInCU: 0xC5D6, offset: 0xC5D6, size: 0x8, addend: 0x0, symName: __ZNSt3__117__compressed_pairINS_12basic_stringIcNS_11char_traitsIcEENS_9allocatorIcEEE5__repES5_E5firstB8ue170006Ev, symObjAddr: 0x16D0, symBinAddr: 0x100002230, symSize: 0x20 }
  - { offsetInCU: 0xC5FB, offset: 0xC5FB, size: 0x8, addend: 0x0, symName: __ZNSt3__122__compressed_pair_elemINS_12basic_stringIcNS_11char_traitsIcEENS_9allocatorIcEEE5__repELi0ELb0EE5__getB8ue170006Ev, symObjAddr: 0x16F0, symBinAddr: 0x100002250, symSize: 0x10 }
  - { offsetInCU: 0xC6B2, offset: 0xC6B2, size: 0x8, addend: 0x0, symName: __ZNKSt3__113basic_istreamIcNS_11char_traitsIcEEE6sentrycvbB8ue170006Ev, symObjAddr: 0x1920, symBinAddr: 0x100002480, symSize: 0x20 }
  - { offsetInCU: 0xC6D6, offset: 0xC6D6, size: 0x8, addend: 0x0, symName: __ZNSt3__112basic_stringIcNS_11char_traitsIcEENS_9allocatorIcEEE5clearB8ue170006Ev, symObjAddr: 0x1940, symBinAddr: 0x1000024A0, symSize: 0x80 }
  - { offsetInCU: 0xC6FD, offset: 0xC6FD, size: 0x8, addend: 0x0, symName: __ZNSt3__115basic_streambufIcNS_11char_traitsIcEEE6sbumpcB8ue170006Ev, symObjAddr: 0x19C0, symBinAddr: 0x100002520, symSize: 0x60 }
  - { offsetInCU: 0xC722, offset: 0xC722, size: 0x8, addend: 0x0, symName: __ZNSt3__111char_traitsIcE12to_char_typeB8ue170006Ei, symObjAddr: 0x1A20, symBinAddr: 0x100002580, symSize: 0x10 }
  - { offsetInCU: 0xC745, offset: 0xC745, size: 0x8, addend: 0x0, symName: __ZNSt3__111char_traitsIcE2eqEcc, symObjAddr: 0x1A30, symBinAddr: 0x100002590, symSize: 0x30 }
  - { offsetInCU: 0xC776, offset: 0xC776, size: 0x8, addend: 0x0, symName: __ZNKSt3__112basic_stringIcNS_11char_traitsIcEENS_9allocatorIcEEE4sizeB8ue170006Ev, symObjAddr: 0x1A60, symBinAddr: 0x1000025C0, symSize: 0x50 }
  - { offsetInCU: 0xC79B, offset: 0xC79B, size: 0x8, addend: 0x0, symName: __ZNKSt3__112basic_stringIcNS_11char_traitsIcEENS_9allocatorIcEEE8max_sizeB8ue170006Ev, symObjAddr: 0x1AB0, symBinAddr: 0x100002610, symSize: 0xA0 }
  - { offsetInCU: 0xC7ED, offset: 0xC7ED, size: 0x8, addend: 0x0, symName: __ZNSt3__18ios_base18__setstate_nothrowB8ue170006Ej, symObjAddr: 0x1B50, symBinAddr: 0x1000026B0, symSize: 0x50 }
  - { offsetInCU: 0xC821, offset: 0xC821, size: 0x8, addend: 0x0, symName: __ZNKSt3__19basic_iosIcNS_11char_traitsIcEEE10exceptionsB8ue170006Ev, symObjAddr: 0x1BA0, symBinAddr: 0x100002700, symSize: 0x20 }
  - { offsetInCU: 0xC846, offset: 0xC846, size: 0x8, addend: 0x0, symName: __ZNSt3__111char_traitsIcE6assignB8ue170006ERcRKc, symObjAddr: 0x1BC0, symBinAddr: 0x100002720, symSize: 0x20 }
  - { offsetInCU: 0xC877, offset: 0xC877, size: 0x8, addend: 0x0, symName: __ZNSt3__112basic_stringIcNS_11char_traitsIcEENS_9allocatorIcEEE18__get_long_pointerB8ue170006Ev, symObjAddr: 0x1BE0, symBinAddr: 0x100002740, symSize: 0x20 }
  - { offsetInCU: 0xC89C, offset: 0xC89C, size: 0x8, addend: 0x0, symName: __ZNSt3__112basic_stringIcNS_11char_traitsIcEENS_9allocatorIcEEE15__set_long_sizeB8ue170006Em, symObjAddr: 0x1C00, symBinAddr: 0x100002760, symSize: 0x30 }
  - { offsetInCU: 0xC8D0, offset: 0xC8D0, size: 0x8, addend: 0x0, symName: __ZNSt3__112basic_stringIcNS_11char_traitsIcEENS_9allocatorIcEEE19__get_short_pointerB8ue170006Ev, symObjAddr: 0x1C30, symBinAddr: 0x100002790, symSize: 0x30 }
  - { offsetInCU: 0xC8F5, offset: 0xC8F5, size: 0x8, addend: 0x0, symName: __ZNSt3__112basic_stringIcNS_11char_traitsIcEENS_9allocatorIcEEE16__set_short_sizeB8ue170006Em, symObjAddr: 0x1C60, symBinAddr: 0x1000027C0, symSize: 0x50 }
  - { offsetInCU: 0xC929, offset: 0xC929, size: 0x8, addend: 0x0, symName: __ZNSt3__114pointer_traitsIPcE10pointer_toB8ue170006ERc, symObjAddr: 0x1CB0, symBinAddr: 0x100002810, symSize: 0x10 }
  - { offsetInCU: 0xC94C, offset: 0xC94C, size: 0x8, addend: 0x0, symName: __ZNSt3__111char_traitsIcE11to_int_typeB8ue170006Ec, symObjAddr: 0x1CC0, symBinAddr: 0x100002820, symSize: 0x10 }
  - { offsetInCU: 0xC970, offset: 0xC970, size: 0x8, addend: 0x0, symName: __ZNKSt3__112basic_stringIcNS_11char_traitsIcEENS_9allocatorIcEEE15__get_long_sizeB8ue170006Ev, symObjAddr: 0x1CD0, symBinAddr: 0x100002830, symSize: 0x20 }
  - { offsetInCU: 0xC995, offset: 0xC995, size: 0x8, addend: 0x0, symName: __ZNKSt3__112basic_stringIcNS_11char_traitsIcEENS_9allocatorIcEEE16__get_short_sizeB8ue170006Ev, symObjAddr: 0x1CF0, symBinAddr: 0x100002850, symSize: 0x30 }
  - { offsetInCU: 0xC9C4, offset: 0xC9C4, size: 0x8, addend: 0x0, symName: __ZNSt3__116allocator_traitsINS_9allocatorIcEEE8max_sizeB8ue170006IS2_vEEmRKS2_, symObjAddr: 0x1D20, symBinAddr: 0x100002880, symSize: 0x20 }
  - { offsetInCU: 0xC9F2, offset: 0xC9F2, size: 0x8, addend: 0x0, symName: __ZNKSt3__112basic_stringIcNS_11char_traitsIcEENS_9allocatorIcEEE7__allocB8ue170006Ev, symObjAddr: 0x1D40, symBinAddr: 0x1000028A0, symSize: 0x20 }
  - { offsetInCU: 0xCA17, offset: 0xCA17, size: 0x8, addend: 0x0, symName: __ZNSt3__114numeric_limitsImE3maxB8ue170006Ev, symObjAddr: 0x1D60, symBinAddr: 0x1000028C0, symSize: 0x10 }
  - { offsetInCU: 0xCA2B, offset: 0xCA2B, size: 0x8, addend: 0x0, symName: __ZNKSt3__19allocatorIcE8max_sizeB8ue170006Ev, symObjAddr: 0x1D70, symBinAddr: 0x1000028D0, symSize: 0x20 }
  - { offsetInCU: 0xCA50, offset: 0xCA50, size: 0x8, addend: 0x0, symName: __ZNKSt3__117__compressed_pairINS_12basic_stringIcNS_11char_traitsIcEENS_9allocatorIcEEE5__repES5_E6secondB8ue170006Ev, symObjAddr: 0x1D90, symBinAddr: 0x1000028F0, symSize: 0x20 }
  - { offsetInCU: 0xCA75, offset: 0xCA75, size: 0x8, addend: 0x0, symName: __ZNKSt3__122__compressed_pair_elemINS_9allocatorIcEELi1ELb1EE5__getB8ue170006Ev, symObjAddr: 0x1DB0, symBinAddr: 0x100002910, symSize: 0x10 }
  - { offsetInCU: 0xCA9A, offset: 0xCA9A, size: 0x8, addend: 0x0, symName: __ZNSt3__123__libcpp_numeric_limitsImLb1EE3maxB8ue170006Ev, symObjAddr: 0x1DC0, symBinAddr: 0x100002920, symSize: 0x10 }
  - { offsetInCU: 0xCAAD, offset: 0xCAAD, size: 0x8, addend: 0x0, symName: __ZNKSt3__18ios_base10exceptionsB8ue170006Ev, symObjAddr: 0x1DD0, symBinAddr: 0x100002930, symSize: 0x20 }
  - { offsetInCU: 0xCAD4, offset: 0xCAD4, size: 0x8, addend: 0x0, symName: __ZNSt3__16vectorI11TransactionNS_9allocatorIS1_EEE9__end_capB8ue170006Ev, symObjAddr: 0x1DF0, symBinAddr: 0x100002950, symSize: 0x20 }
  - { offsetInCU: 0xCAFE, offset: 0xCAFE, size: 0x8, addend: 0x0, symName: __ZNSt3__16vectorI11TransactionNS_9allocatorIS1_EEE22__construct_one_at_endB8ue170006IJS1_EEEvDpOT_, symObjAddr: 0x1E10, symBinAddr: 0x100002970, symSize: 0x90 }
  - { offsetInCU: 0xCB4B, offset: 0xCB4B, size: 0x8, addend: 0x0, symName: __ZNSt3__16vectorI11TransactionNS_9allocatorIS1_EEE21__push_back_slow_pathIS1_EEvOT_, symObjAddr: 0x1EA0, symBinAddr: 0x100002A00, symSize: 0xD0 }
  - { offsetInCU: 0xCBA8, offset: 0xCBA8, size: 0x8, addend: 0x0, symName: __ZNSt3__117__compressed_pairIP11TransactionNS_9allocatorIS1_EEE5firstB8ue170006Ev, symObjAddr: 0x1F70, symBinAddr: 0x100002AD0, symSize: 0x20 }
  - { offsetInCU: 0xCBCD, offset: 0xCBCD, size: 0x8, addend: 0x0, symName: __ZNSt3__122__compressed_pair_elemIP11TransactionLi0ELb0EE5__getB8ue170006Ev, symObjAddr: 0x1F90, symBinAddr: 0x100002AF0, symSize: 0x10 }
  - { offsetInCU: 0xCC0B, offset: 0xCC0B, size: 0x8, addend: 0x0, symName: __ZNSt3__16vectorI11TransactionNS_9allocatorIS1_EEE21_ConstructTransactionC1B8ue170006ERS4_m, symObjAddr: 0x1FA0, symBinAddr: 0x100002B00, symSize: 0x30 }
  - { offsetInCU: 0xCC52, offset: 0xCC52, size: 0x8, addend: 0x0, symName: __ZNSt3__116allocator_traitsINS_9allocatorI11TransactionEEE9constructB8ue170006IS2_JS2_EvEEvRS3_PT_DpOT0_, symObjAddr: 0x1FD0, symBinAddr: 0x100002B30, symSize: 0x30 }
  - { offsetInCU: 0xCCA9, offset: 0xCCA9, size: 0x8, addend: 0x0, symName: __ZNSt3__16vectorI11TransactionNS_9allocatorIS1_EEE7__allocB8ue170006Ev, symObjAddr: 0x2000, symBinAddr: 0x100002B60, symSize: 0x20 }
  - { offsetInCU: 0xCCCE, offset: 0xCCCE, size: 0x8, addend: 0x0, symName: __ZNSt3__16vectorI11TransactionNS_9allocatorIS1_EEE21_ConstructTransactionD1B8ue170006Ev, symObjAddr: 0x2030, symBinAddr: 0x100002B90, symSize: 0x20 }
  - { offsetInCU: 0xCCF7, offset: 0xCCF7, size: 0x8, addend: 0x0, symName: __ZNSt3__16vectorI11TransactionNS_9allocatorIS1_EEE21_ConstructTransactionC2B8ue170006ERS4_m, symObjAddr: 0x2050, symBinAddr: 0x100002BB0, symSize: 0x40 }
  - { offsetInCU: 0xCD3E, offset: 0xCD3E, size: 0x8, addend: 0x0, symName: __ZNSt3__19allocatorI11TransactionE9constructB8ue170006IS1_JS1_EEEvPT_DpOT0_, symObjAddr: 0x2090, symBinAddr: 0x100002BF0, symSize: 0x30 }
  - { offsetInCU: 0xCD93, offset: 0xCD93, size: 0x8, addend: 0x0, symName: __ZN11TransactionC1EOS_, symObjAddr: 0x20C0, symBinAddr: 0x100002C20, symSize: 0x30 }
  - { offsetInCU: 0xCDC7, offset: 0xCDC7, size: 0x8, addend: 0x0, symName: __ZN11TransactionC2EOS_, symObjAddr: 0x20F0, symBinAddr: 0x100002C50, symSize: 0x60 }
  - { offsetInCU: 0xCDFB, offset: 0xCDFB, size: 0x8, addend: 0x0, symName: __ZNSt3__112basic_stringIcNS_11char_traitsIcEENS_9allocatorIcEEEC1B8ue170006EOS5_, symObjAddr: 0x2150, symBinAddr: 0x100002CB0, symSize: 0x30 }
  - { offsetInCU: 0xCE33, offset: 0xCE33, size: 0x8, addend: 0x0, symName: __ZNSt3__112basic_stringIcNS_11char_traitsIcEENS_9allocatorIcEEEC2B8ue170006EOS5_, symObjAddr: 0x2180, symBinAddr: 0x100002CE0, symSize: 0x40 }
  - { offsetInCU: 0xCE6B, offset: 0xCE6B, size: 0x8, addend: 0x0, symName: __ZNSt3__117__compressed_pairIP11TransactionNS_9allocatorIS1_EEE6secondB8ue170006Ev, symObjAddr: 0x21C0, symBinAddr: 0x100002D20, symSize: 0x20 }
  - { offsetInCU: 0xCE90, offset: 0xCE90, size: 0x8, addend: 0x0, symName: __ZNSt3__122__compressed_pair_elemINS_9allocatorI11TransactionEELi1ELb1EE5__getB8ue170006Ev, symObjAddr: 0x21E0, symBinAddr: 0x100002D40, symSize: 0x10 }
  - { offsetInCU: 0xCEB5, offset: 0xCEB5, size: 0x8, addend: 0x0, symName: __ZNSt3__16vectorI11TransactionNS_9allocatorIS1_EEE21_ConstructTransactionD2B8ue170006Ev, symObjAddr: 0x21F0, symBinAddr: 0x100002D50, symSize: 0x20 }
  - { offsetInCU: 0xCEDD, offset: 0xCEDD, size: 0x8, addend: 0x0, symName: __ZNKSt3__16vectorI11TransactionNS_9allocatorIS1_EEE11__recommendB8ue170006Em, symObjAddr: 0x2210, symBinAddr: 0x100002D70, symSize: 0xA0 }
  - { offsetInCU: 0xCF31, offset: 0xCF31, size: 0x8, addend: 0x0, symName: __ZNKSt3__16vectorI11TransactionNS_9allocatorIS1_EEE4sizeB8ue170006Ev, symObjAddr: 0x22B0, symBinAddr: 0x100002E10, symSize: 0x30 }
  - { offsetInCU: 0xCF56, offset: 0xCF56, size: 0x8, addend: 0x0, symName: __ZNSt3__114__split_bufferI11TransactionRNS_9allocatorIS1_EEEC1EmmS4_, symObjAddr: 0x22E0, symBinAddr: 0x100002E40, symSize: 0x40 }
  - { offsetInCU: 0xCFAB, offset: 0xCFAB, size: 0x8, addend: 0x0, symName: __ZNSt3__114__split_bufferI11TransactionRNS_9allocatorIS1_EEED1Ev, symObjAddr: 0x2440, symBinAddr: 0x100002FA0, symSize: 0x20 }
  - { offsetInCU: 0xCFD5, offset: 0xCFD5, size: 0x8, addend: 0x0, symName: __ZNKSt3__16vectorI11TransactionNS_9allocatorIS1_EEE8max_sizeEv, symObjAddr: 0x2460, symBinAddr: 0x100002FC0, symSize: 0x60 }
  - { offsetInCU: 0xCFFC, offset: 0xCFFC, size: 0x8, addend: 0x0, symName: __ZNKSt3__16vectorI11TransactionNS_9allocatorIS1_EEE20__throw_length_errorB8ue170006Ev, symObjAddr: 0x24C0, symBinAddr: 0x100003020, symSize: 0x20 }
  - { offsetInCU: 0xD021, offset: 0xD021, size: 0x8, addend: 0x0, symName: __ZNKSt3__16vectorI11TransactionNS_9allocatorIS1_EEE8capacityB8ue170006Ev, symObjAddr: 0x24E0, symBinAddr: 0x100003040, symSize: 0x40 }
  - { offsetInCU: 0xD050, offset: 0xD050, size: 0x8, addend: 0x0, symName: __ZNSt3__116allocator_traitsINS_9allocatorI11TransactionEEE8max_sizeB8ue170006IS3_vEEmRKS3_, symObjAddr: 0x2580, symBinAddr: 0x1000030E0, symSize: 0x20 }
  - { offsetInCU: 0xD07E, offset: 0xD07E, size: 0x8, addend: 0x0, symName: __ZNKSt3__16vectorI11TransactionNS_9allocatorIS1_EEE7__allocB8ue170006Ev, symObjAddr: 0x25A0, symBinAddr: 0x100003100, symSize: 0x20 }
  - { offsetInCU: 0xD0A3, offset: 0xD0A3, size: 0x8, addend: 0x0, symName: __ZNSt3__114numeric_limitsIlE3maxB8ue170006Ev, symObjAddr: 0x25C0, symBinAddr: 0x100003120, symSize: 0x10 }
  - { offsetInCU: 0xD0CB, offset: 0xD0CB, size: 0x8, addend: 0x0, symName: __ZNKSt3__16__lessIvvEclB8ue170006ImmEEbRKT_RKT0_, symObjAddr: 0x2620, symBinAddr: 0x100003180, symSize: 0x30 }
  - { offsetInCU: 0xD11E, offset: 0xD11E, size: 0x8, addend: 0x0, symName: __ZNKSt3__19allocatorI11TransactionE8max_sizeB8ue170006Ev, symObjAddr: 0x2650, symBinAddr: 0x1000031B0, symSize: 0x20 }
  - { offsetInCU: 0xD143, offset: 0xD143, size: 0x8, addend: 0x0, symName: __ZNKSt3__117__compressed_pairIP11TransactionNS_9allocatorIS1_EEE6secondB8ue170006Ev, symObjAddr: 0x2670, symBinAddr: 0x1000031D0, symSize: 0x20 }
  - { offsetInCU: 0xD168, offset: 0xD168, size: 0x8, addend: 0x0, symName: __ZNKSt3__122__compressed_pair_elemINS_9allocatorI11TransactionEELi1ELb1EE5__getB8ue170006Ev, symObjAddr: 0x2690, symBinAddr: 0x1000031F0, symSize: 0x10 }
  - { offsetInCU: 0xD18D, offset: 0xD18D, size: 0x8, addend: 0x0, symName: __ZNSt3__123__libcpp_numeric_limitsIlLb1EE3maxB8ue170006Ev, symObjAddr: 0x26A0, symBinAddr: 0x100003200, symSize: 0x10 }
  - { offsetInCU: 0xD1A1, offset: 0xD1A1, size: 0x8, addend: 0x0, symName: __ZNSt12length_errorC1B8ue170006EPKc, symObjAddr: 0x2720, symBinAddr: 0x100003280, symSize: 0x30 }
  - { offsetInCU: 0xD1D8, offset: 0xD1D8, size: 0x8, addend: 0x0, symName: __ZNSt12length_errorC2B8ue170006EPKc, symObjAddr: 0x2750, symBinAddr: 0x1000032B0, symSize: 0x40 }
  - { offsetInCU: 0xD20F, offset: 0xD20F, size: 0x8, addend: 0x0, symName: __ZNKSt3__16vectorI11TransactionNS_9allocatorIS1_EEE9__end_capB8ue170006Ev, symObjAddr: 0x2790, symBinAddr: 0x1000032F0, symSize: 0x20 }
  - { offsetInCU: 0xD234, offset: 0xD234, size: 0x8, addend: 0x0, symName: __ZNKSt3__117__compressed_pairIP11TransactionNS_9allocatorIS1_EEE5firstB8ue170006Ev, symObjAddr: 0x27B0, symBinAddr: 0x100003310, symSize: 0x20 }
  - { offsetInCU: 0xD259, offset: 0xD259, size: 0x8, addend: 0x0, symName: __ZNKSt3__122__compressed_pair_elemIP11TransactionLi0ELb0EE5__getB8ue170006Ev, symObjAddr: 0x27D0, symBinAddr: 0x100003330, symSize: 0x10 }
  - { offsetInCU: 0xD27E, offset: 0xD27E, size: 0x8, addend: 0x0, symName: __ZNSt3__114__split_bufferI11TransactionRNS_9allocatorIS1_EEEC2EmmS4_, symObjAddr: 0x2830, symBinAddr: 0x100003390, symSize: 0xC0 }
  - { offsetInCU: 0xD2F1, offset: 0xD2F1, size: 0x8, addend: 0x0, symName: __ZNSt3__117__compressed_pairIP11TransactionRNS_9allocatorIS1_EEEC1B8ue170006IDnS5_EEOT_OT0_, symObjAddr: 0x28F0, symBinAddr: 0x100003450, symSize: 0x30 }
  - { offsetInCU: 0xD348, offset: 0xD348, size: 0x8, addend: 0x0, symName: __ZNSt3__114__split_bufferI11TransactionRNS_9allocatorIS1_EEE7__allocB8ue170006Ev, symObjAddr: 0x2960, symBinAddr: 0x1000034C0, symSize: 0x20 }
  - { offsetInCU: 0xD36D, offset: 0xD36D, size: 0x8, addend: 0x0, symName: __ZNSt3__114__split_bufferI11TransactionRNS_9allocatorIS1_EEE9__end_capB8ue170006Ev, symObjAddr: 0x2980, symBinAddr: 0x1000034E0, symSize: 0x20 }
  - { offsetInCU: 0xD392, offset: 0xD392, size: 0x8, addend: 0x0, symName: __ZNSt3__117__compressed_pairIP11TransactionRNS_9allocatorIS1_EEEC2B8ue170006IDnS5_EEOT_OT0_, symObjAddr: 0x29A0, symBinAddr: 0x100003500, symSize: 0x40 }
  - { offsetInCU: 0xD3E9, offset: 0xD3E9, size: 0x8, addend: 0x0, symName: __ZNSt3__122__compressed_pair_elemIRNS_9allocatorI11TransactionEELi1ELb0EEC2B8ue170006IS4_vEEOT_, symObjAddr: 0x29E0, symBinAddr: 0x100003540, symSize: 0x20 }
  - { offsetInCU: 0xD42A, offset: 0xD42A, size: 0x8, addend: 0x0, symName: __ZNSt3__19allocatorI11TransactionE8allocateB8ue170006Em, symObjAddr: 0x2A00, symBinAddr: 0x100003560, symSize: 0x50 }
  - { offsetInCU: 0xD45D, offset: 0xD45D, size: 0x8, addend: 0x0, symName: __ZNSt3__117__compressed_pairIP11TransactionRNS_9allocatorIS1_EEE6secondB8ue170006Ev, symObjAddr: 0x2AD0, symBinAddr: 0x100003630, symSize: 0x20 }
  - { offsetInCU: 0xD482, offset: 0xD482, size: 0x8, addend: 0x0, symName: __ZNSt3__122__compressed_pair_elemIRNS_9allocatorI11TransactionEELi1ELb0EE5__getB8ue170006Ev, symObjAddr: 0x2AF0, symBinAddr: 0x100003650, symSize: 0x20 }
  - { offsetInCU: 0xD4A7, offset: 0xD4A7, size: 0x8, addend: 0x0, symName: __ZNSt3__117__compressed_pairIP11TransactionRNS_9allocatorIS1_EEE5firstB8ue170006Ev, symObjAddr: 0x2B10, symBinAddr: 0x100003670, symSize: 0x20 }
  - { offsetInCU: 0xD4CC, offset: 0xD4CC, size: 0x8, addend: 0x0, symName: __ZNKSt3__16vectorI11TransactionNS_9allocatorIS1_EEE17__annotate_deleteB8ue170006Ev, symObjAddr: 0x2B30, symBinAddr: 0x100003690, symSize: 0xB0 }
  - { offsetInCU: 0xD4F1, offset: 0xD4F1, size: 0x8, addend: 0x0, symName: __ZNSt3__116reverse_iteratorIP11TransactionEC1B8ue170006ES2_, symObjAddr: 0x2D60, symBinAddr: 0x1000038C0, symSize: 0x30 }
  - { offsetInCU: 0xD528, offset: 0xD528, size: 0x8, addend: 0x0, symName: __ZNKSt3__116reverse_iteratorIP11TransactionE4baseB8ue170006Ev, symObjAddr: 0x2D90, symBinAddr: 0x1000038F0, symSize: 0x20 }
  - { offsetInCU: 0xD54D, offset: 0xD54D, size: 0x8, addend: 0x0, symName: __ZNKSt3__16vectorI11TransactionNS_9allocatorIS1_EEE14__annotate_newB8ue170006Em, symObjAddr: 0x2DF0, symBinAddr: 0x100003950, symSize: 0xA0 }
  - { offsetInCU: 0xD581, offset: 0xD581, size: 0x8, addend: 0x0, symName: __ZNKSt3__16vectorI11TransactionNS_9allocatorIS1_EEE31__annotate_contiguous_containerB8ue170006EPKvS6_S6_S6_, symObjAddr: 0x2E90, symBinAddr: 0x1000039F0, symSize: 0x20 }
  - { offsetInCU: 0xD5D6, offset: 0xD5D6, size: 0x8, addend: 0x0, symName: __ZNKSt3__16vectorI11TransactionNS_9allocatorIS1_EEE4dataB8ue170006Ev, symObjAddr: 0x2EB0, symBinAddr: 0x100003A10, symSize: 0x20 }
  - { offsetInCU: 0xD5FB, offset: 0xD5FB, size: 0x8, addend: 0x0, symName: __ZNSt3__129_AllocatorDestroyRangeReverseINS_9allocatorI11TransactionEENS_16reverse_iteratorIPS2_EEEC1B8ue170006ERS3_RS6_S9_, symObjAddr: 0x2F30, symBinAddr: 0x100003A90, symSize: 0x40 }
  - { offsetInCU: 0xD651, offset: 0xD651, size: 0x8, addend: 0x0, symName: __ZNKSt3__116reverse_iteratorIP11TransactionEdeB8ue170006Ev, symObjAddr: 0x2FD0, symBinAddr: 0x100003B30, symSize: 0x30 }
  - { offsetInCU: 0xD684, offset: 0xD684, size: 0x8, addend: 0x0, symName: __ZNSt3__116reverse_iteratorIP11TransactionEppB8ue170006Ev, symObjAddr: 0x3000, symBinAddr: 0x100003B60, symSize: 0x20 }
  - { offsetInCU: 0xD6A9, offset: 0xD6A9, size: 0x8, addend: 0x0, symName: __ZNSt3__128__exception_guard_exceptionsINS_29_AllocatorDestroyRangeReverseINS_9allocatorI11TransactionEENS_16reverse_iteratorIPS3_EEEEE10__completeB8ue170006Ev, symObjAddr: 0x3020, symBinAddr: 0x100003B80, symSize: 0x20 }
  - { offsetInCU: 0xD6CE, offset: 0xD6CE, size: 0x8, addend: 0x0, symName: __ZNSt3__128__exception_guard_exceptionsINS_29_AllocatorDestroyRangeReverseINS_9allocatorI11TransactionEENS_16reverse_iteratorIPS3_EEEEED1B8ue170006Ev, symObjAddr: 0x3040, symBinAddr: 0x100003BA0, symSize: 0x20 }
  - { offsetInCU: 0xD6F7, offset: 0xD6F7, size: 0x8, addend: 0x0, symName: __ZNSt3__128__exception_guard_exceptionsINS_29_AllocatorDestroyRangeReverseINS_9allocatorI11TransactionEENS_16reverse_iteratorIPS3_EEEEEC1B8ue170006ES8_, symObjAddr: 0x3060, symBinAddr: 0x100003BC0, symSize: 0x40 }
  - { offsetInCU: 0xD72E, offset: 0xD72E, size: 0x8, addend: 0x0, symName: __ZNSt3__128__exception_guard_exceptionsINS_29_AllocatorDestroyRangeReverseINS_9allocatorI11TransactionEENS_16reverse_iteratorIPS3_EEEEEC2B8ue170006ES8_, symObjAddr: 0x30A0, symBinAddr: 0x100003C00, symSize: 0x30 }
  - { offsetInCU: 0xD765, offset: 0xD765, size: 0x8, addend: 0x0, symName: __ZNSt3__129_AllocatorDestroyRangeReverseINS_9allocatorI11TransactionEENS_16reverse_iteratorIPS2_EEEC2B8ue170006ERS3_RS6_S9_, symObjAddr: 0x30D0, symBinAddr: 0x100003C30, symSize: 0x40 }
  - { offsetInCU: 0xD7C0, offset: 0xD7C0, size: 0x8, addend: 0x0, symName: __ZNSt3__119__to_address_helperINS_16reverse_iteratorIP11TransactionEEvE6__callB8ue170006ERKS4_, symObjAddr: 0x3110, symBinAddr: 0x100003C70, symSize: 0x40 }
  - { offsetInCU: 0xD7E3, offset: 0xD7E3, size: 0x8, addend: 0x0, symName: __ZNKSt3__116reverse_iteratorIP11TransactionEptB8ue170006Ev, symObjAddr: 0x3150, symBinAddr: 0x100003CB0, symSize: 0x20 }
  - { offsetInCU: 0xD808, offset: 0xD808, size: 0x8, addend: 0x0, symName: __ZNSt3__128__exception_guard_exceptionsINS_29_AllocatorDestroyRangeReverseINS_9allocatorI11TransactionEENS_16reverse_iteratorIPS3_EEEEED2B8ue170006Ev, symObjAddr: 0x3170, symBinAddr: 0x100003CD0, symSize: 0x40 }
  - { offsetInCU: 0xD831, offset: 0xD831, size: 0x8, addend: 0x0, symName: __ZNKSt3__129_AllocatorDestroyRangeReverseINS_9allocatorI11TransactionEENS_16reverse_iteratorIPS2_EEEclB8ue170006Ev, symObjAddr: 0x31B0, symBinAddr: 0x100003D10, symSize: 0xF0 }
  - { offsetInCU: 0xD857, offset: 0xD857, size: 0x8, addend: 0x0, symName: __ZNSt3__116reverse_iteratorINS0_IP11TransactionEEEC1B8ue170006ES3_, symObjAddr: 0x3310, symBinAddr: 0x100003E70, symSize: 0x30 }
  - { offsetInCU: 0xD88E, offset: 0xD88E, size: 0x8, addend: 0x0, symName: __ZNSt3__116allocator_traitsINS_9allocatorI11TransactionEEE7destroyB8ue170006IS2_vEEvRS3_PT_, symObjAddr: 0x3390, symBinAddr: 0x100003EF0, symSize: 0x30 }
  - { offsetInCU: 0xD8CB, offset: 0xD8CB, size: 0x8, addend: 0x0, symName: __ZNSt3__116reverse_iteratorINS0_IP11TransactionEEEppB8ue170006Ev, symObjAddr: 0x33E0, symBinAddr: 0x100003F40, symSize: 0x30 }
  - { offsetInCU: 0xD8F0, offset: 0xD8F0, size: 0x8, addend: 0x0, symName: __ZNKSt3__116reverse_iteratorINS0_IP11TransactionEEE4baseB8ue170006Ev, symObjAddr: 0x3410, symBinAddr: 0x100003F70, symSize: 0x20 }
  - { offsetInCU: 0xD915, offset: 0xD915, size: 0x8, addend: 0x0, symName: __ZNSt3__19allocatorI11TransactionE7destroyB8ue170006EPS1_, symObjAddr: 0x3430, symBinAddr: 0x100003F90, symSize: 0x20 }
  - { offsetInCU: 0xD94D, offset: 0xD94D, size: 0x8, addend: 0x0, symName: __ZNSt3__119__to_address_helperINS_16reverse_iteratorINS1_IP11TransactionEEEEvE6__callB8ue170006ERKS5_, symObjAddr: 0x3450, symBinAddr: 0x100003FB0, symSize: 0x40 }
  - { offsetInCU: 0xD970, offset: 0xD970, size: 0x8, addend: 0x0, symName: __ZNKSt3__116reverse_iteratorINS0_IP11TransactionEEEptB8ue170006Ev, symObjAddr: 0x3490, symBinAddr: 0x100003FF0, symSize: 0x20 }
  - { offsetInCU: 0xD995, offset: 0xD995, size: 0x8, addend: 0x0, symName: __ZNKSt3__116reverse_iteratorINS0_IP11TransactionEEEdeB8ue170006Ev, symObjAddr: 0x34B0, symBinAddr: 0x100004010, symSize: 0x40 }
  - { offsetInCU: 0xD9C8, offset: 0xD9C8, size: 0x8, addend: 0x0, symName: __ZNSt3__116reverse_iteratorIP11TransactionEmmB8ue170006Ev, symObjAddr: 0x34F0, symBinAddr: 0x100004050, symSize: 0x20 }
  - { offsetInCU: 0xD9ED, offset: 0xD9ED, size: 0x8, addend: 0x0, symName: __ZNSt3__116reverse_iteratorINS0_IP11TransactionEEEC2B8ue170006ES3_, symObjAddr: 0x3510, symBinAddr: 0x100004070, symSize: 0x40 }
  - { offsetInCU: 0xDA24, offset: 0xDA24, size: 0x8, addend: 0x0, symName: __ZNSt3__116reverse_iteratorIP11TransactionEC2B8ue170006ES2_, symObjAddr: 0x3550, symBinAddr: 0x1000040B0, symSize: 0x30 }
  - { offsetInCU: 0xDA5B, offset: 0xDA5B, size: 0x8, addend: 0x0, symName: __ZNSt3__114__split_bufferI11TransactionRNS_9allocatorIS1_EEED2Ev, symObjAddr: 0x3580, symBinAddr: 0x1000040E0, symSize: 0x70 }
  - { offsetInCU: 0xDA86, offset: 0xDA86, size: 0x8, addend: 0x0, symName: __ZNSt3__114__split_bufferI11TransactionRNS_9allocatorIS1_EEE5clearB8ue170006Ev, symObjAddr: 0x35F0, symBinAddr: 0x100004150, symSize: 0x20 }
  - { offsetInCU: 0xDAAB, offset: 0xDAAB, size: 0x8, addend: 0x0, symName: __ZNSt3__116allocator_traitsINS_9allocatorI11TransactionEEE10deallocateB8ue170006ERS3_PS2_m, symObjAddr: 0x3610, symBinAddr: 0x100004170, symSize: 0x30 }
  - { offsetInCU: 0xDAED, offset: 0xDAED, size: 0x8, addend: 0x0, symName: __ZNKSt3__114__split_bufferI11TransactionRNS_9allocatorIS1_EEE8capacityB8ue170006Ev, symObjAddr: 0x3640, symBinAddr: 0x1000041A0, symSize: 0x40 }
  - { offsetInCU: 0xDB12, offset: 0xDB12, size: 0x8, addend: 0x0, symName: __ZNSt3__114__split_bufferI11TransactionRNS_9allocatorIS1_EEE17__destruct_at_endB8ue170006EPS1_, symObjAddr: 0x3680, symBinAddr: 0x1000041E0, symSize: 0x30 }
  - { offsetInCU: 0xDB44, offset: 0xDB44, size: 0x8, addend: 0x0, symName: __ZNSt3__114__split_bufferI11TransactionRNS_9allocatorIS1_EEE17__destruct_at_endB8ue170006EPS1_NS_17integral_constantIbLb0EEE, symObjAddr: 0x36B0, symBinAddr: 0x100004210, symSize: 0x80 }
  - { offsetInCU: 0xDB84, offset: 0xDB84, size: 0x8, addend: 0x0, symName: __ZNSt3__19allocatorI11TransactionE10deallocateB8ue170006EPS1_m, symObjAddr: 0x3730, symBinAddr: 0x100004290, symSize: 0x50 }
  - { offsetInCU: 0xDBC5, offset: 0xDBC5, size: 0x8, addend: 0x0, symName: __ZNKSt3__114__split_bufferI11TransactionRNS_9allocatorIS1_EEE9__end_capB8ue170006Ev, symObjAddr: 0x37F0, symBinAddr: 0x100004350, symSize: 0x20 }
  - { offsetInCU: 0xDBEA, offset: 0xDBEA, size: 0x8, addend: 0x0, symName: __ZNKSt3__117__compressed_pairIP11TransactionRNS_9allocatorIS1_EEE5firstB8ue170006Ev, symObjAddr: 0x3810, symBinAddr: 0x100004370, symSize: 0x20 }
  - { offsetInCU: 0xDC0F, offset: 0xDC0F, size: 0x8, addend: 0x0, symName: __ZNSt3__112basic_stringIcNS_11char_traitsIcEENS_9allocatorIcEEEC2B8ue170006ILi0EEEPKc, symObjAddr: 0x3830, symBinAddr: 0x100004390, symSize: 0x50 }
  - { offsetInCU: 0xDC4D, offset: 0xDC4D, size: 0x8, addend: 0x0, symName: __ZN11TransactionD2Ev, symObjAddr: 0x3880, symBinAddr: 0x1000043E0, symSize: 0x40 }
  - { offsetInCU: 0xDC78, offset: 0xDC78, size: 0x8, addend: 0x0, symName: __ZNK17YearBudgetManager17showFixedExpensesEv, symObjAddr: 0x38C0, symBinAddr: 0x100004420, symSize: 0x160 }
  - { offsetInCU: 0xDCBB, offset: 0xDCBB, size: 0x8, addend: 0x0, symName: __ZN13BudgetManager18removeFixedExpenseEi, symObjAddr: 0x3A20, symBinAddr: 0x100004580, symSize: 0xD0 }
  - { offsetInCU: 0xDCEE, offset: 0xDCEE, size: 0x8, addend: 0x0, symName: __ZNKSt3__16vectorI11TransactionNS_9allocatorIS1_EEE5emptyB8ue170006Ev, symObjAddr: 0x3AF0, symBinAddr: 0x100004650, symSize: 0x20 }
  - { offsetInCU: 0xDD12, offset: 0xDD12, size: 0x8, addend: 0x0, symName: __ZNKSt3__16vectorI11TransactionNS_9allocatorIS1_EEEixB8ue170006Em, symObjAddr: 0x3B10, symBinAddr: 0x100004670, symSize: 0x20 }
  - { offsetInCU: 0xDD47, offset: 0xDD47, size: 0x8, addend: 0x0, symName: __ZNSt3__16vectorI11TransactionNS_9allocatorIS1_EEE5eraseB8ue170006ENS_11__wrap_iterIPKS1_EE, symObjAddr: 0x3B30, symBinAddr: 0x100004690, symSize: 0x90 }
  - { offsetInCU: 0xDD9A, offset: 0xDD9A, size: 0x8, addend: 0x0, symName: __ZNSt3__16vectorI11TransactionNS_9allocatorIS1_EEE5beginB8ue170006Ev, symObjAddr: 0x3BC0, symBinAddr: 0x100004720, symSize: 0x30 }
  - { offsetInCU: 0xDDC1, offset: 0xDDC1, size: 0x8, addend: 0x0, symName: __ZNKSt3__111__wrap_iterIP11TransactionEplB8ue170006El, symObjAddr: 0x3BF0, symBinAddr: 0x100004750, symSize: 0x40 }
  - { offsetInCU: 0xDE0C, offset: 0xDE0C, size: 0x8, addend: 0x0, symName: __ZNSt3__111__wrap_iterIPK11TransactionEC1B8ue170006IPS1_EERKNS0_IT_EEPNS_9enable_ifIXsr14is_convertibleIS7_S3_EE5valueEvE4typeE, symObjAddr: 0x3C30, symBinAddr: 0x100004790, symSize: 0x30 }
  - { offsetInCU: 0xDE57, offset: 0xDE57, size: 0x8, addend: 0x0, symName: __ZNKSt3__16vectorI11TransactionNS_9allocatorIS1_EEE6cbeginB8ue170006Ev, symObjAddr: 0x3CA0, symBinAddr: 0x100004800, symSize: 0x30 }
  - { offsetInCU: 0xDE7C, offset: 0xDE7C, size: 0x8, addend: 0x0, symName: __ZNSt3__16vectorI11TransactionNS_9allocatorIS1_EEE17__destruct_at_endB8ue170006EPS1_, symObjAddr: 0x3CD0, symBinAddr: 0x100004830, symSize: 0x50 }
  - { offsetInCU: 0xDEBF, offset: 0xDEBF, size: 0x8, addend: 0x0, symName: __ZNSt3__16vectorI11TransactionNS_9allocatorIS1_EEE11__make_iterB8ue170006EPS1_, symObjAddr: 0x3D60, symBinAddr: 0x1000048C0, symSize: 0x30 }
  - { offsetInCU: 0xDEF3, offset: 0xDEF3, size: 0x8, addend: 0x0, symName: __ZNKSt3__111__wrap_iterIPK11TransactionE4baseB8ue170006Ev, symObjAddr: 0x3D90, symBinAddr: 0x1000048F0, symSize: 0x20 }
  - { offsetInCU: 0xDF17, offset: 0xDF17, size: 0x8, addend: 0x0, symName: __ZNKSt3__16vectorI11TransactionNS_9allocatorIS1_EEE5beginB8ue170006Ev, symObjAddr: 0x3DB0, symBinAddr: 0x100004910, symSize: 0x30 }
  - { offsetInCU: 0xDF3E, offset: 0xDF3E, size: 0x8, addend: 0x0, symName: __ZNKSt3__16vectorI11TransactionNS_9allocatorIS1_EEE11__make_iterB8ue170006EPKS1_, symObjAddr: 0x3DE0, symBinAddr: 0x100004940, symSize: 0x30 }
  - { offsetInCU: 0xDF72, offset: 0xDF72, size: 0x8, addend: 0x0, symName: __ZNSt3__111__wrap_iterIPK11TransactionEC1B8ue170006ES3_, symObjAddr: 0x3E10, symBinAddr: 0x100004970, symSize: 0x30 }
  - { offsetInCU: 0xDFA9, offset: 0xDFA9, size: 0x8, addend: 0x0, symName: __ZNSt3__111__wrap_iterIPK11TransactionEC2B8ue170006ES3_, symObjAddr: 0x3E40, symBinAddr: 0x1000049A0, symSize: 0x20 }
  - { offsetInCU: 0xDFE0, offset: 0xDFE0, size: 0x8, addend: 0x0, symName: __ZNSt3__16vectorI11TransactionNS_9allocatorIS1_EEE22__base_destruct_at_endB8ue170006EPS1_, symObjAddr: 0x3E60, symBinAddr: 0x1000049C0, symSize: 0x80 }
  - { offsetInCU: 0xE023, offset: 0xE023, size: 0x8, addend: 0x0, symName: __ZNKSt3__16vectorI11TransactionNS_9allocatorIS1_EEE17__annotate_shrinkB8ue170006Em, symObjAddr: 0x3EE0, symBinAddr: 0x100004A40, symSize: 0xA0 }
  - { offsetInCU: 0xE07A, offset: 0xE07A, size: 0x8, addend: 0x0, symName: __ZNKSt3__111__move_loopINS_17_ClassicAlgPolicyEEclB8ue170006IP11TransactionS5_S5_EENS_4pairIT_T1_EES7_T0_S8_, symObjAddr: 0x4100, symBinAddr: 0x100004C60, symSize: 0x80 }
  - { offsetInCU: 0xE0E4, offset: 0xE0E4, size: 0x8, addend: 0x0, symName: __ZNSt3__18_IterOpsINS_17_ClassicAlgPolicyEE11__iter_moveB8ue170006IRP11TransactionEENS_9enable_ifIXsr12is_referenceIDTdeclsr3stdE7declvalIRT_EEEEE5valueEDTclsr3stdE4movedeclsr3stdE7declvalIS9_EEEEE4typeEOS8_, symObjAddr: 0x4240, symBinAddr: 0x100004DA0, symSize: 0x20 }
  - { offsetInCU: 0xE110, offset: 0xE110, size: 0x8, addend: 0x0, symName: __ZN11TransactionaSEOS_, symObjAddr: 0x4260, symBinAddr: 0x100004DC0, symSize: 0x60 }
  - { offsetInCU: 0xE140, offset: 0xE140, size: 0x8, addend: 0x0, symName: __ZNSt3__18_IterOpsINS_17_ClassicAlgPolicyEE25__validate_iter_referenceB8ue170006IRP11TransactionEEvv, symObjAddr: 0x42C0, symBinAddr: 0x100004E20, symSize: 0x10 }
  - { offsetInCU: 0xE15E, offset: 0xE15E, size: 0x8, addend: 0x0, symName: __ZNSt3__112basic_stringIcNS_11char_traitsIcEENS_9allocatorIcEEEaSB8ue170006EOS5_, symObjAddr: 0x42D0, symBinAddr: 0x100004E30, symSize: 0x30 }
  - { offsetInCU: 0xE191, offset: 0xE191, size: 0x8, addend: 0x0, symName: __ZNSt3__112basic_stringIcNS_11char_traitsIcEENS_9allocatorIcEEE13__move_assignB8ue170006ERS5_NS_17integral_constantIbLb1EEE, symObjAddr: 0x4300, symBinAddr: 0x100004E60, symSize: 0xD0 }
  - { offsetInCU: 0xE1D3, offset: 0xE1D3, size: 0x8, addend: 0x0, symName: __ZNSt3__116allocator_traitsINS_9allocatorIcEEE10deallocateB8ue170006ERS2_Pcm, symObjAddr: 0x43D0, symBinAddr: 0x100004F30, symSize: 0x30 }
  - { offsetInCU: 0xE215, offset: 0xE215, size: 0x8, addend: 0x0, symName: __ZNSt3__112basic_stringIcNS_11char_traitsIcEENS_9allocatorIcEEE7__allocB8ue170006Ev, symObjAddr: 0x4400, symBinAddr: 0x100004F60, symSize: 0x20 }
  - { offsetInCU: 0xE23A, offset: 0xE23A, size: 0x8, addend: 0x0, symName: __ZNKSt3__112basic_stringIcNS_11char_traitsIcEENS_9allocatorIcEEE14__get_long_capB8ue170006Ev, symObjAddr: 0x4420, symBinAddr: 0x100004F80, symSize: 0x30 }
  - { offsetInCU: 0xE25F, offset: 0xE25F, size: 0x8, addend: 0x0, symName: __ZNSt3__112basic_stringIcNS_11char_traitsIcEENS_9allocatorIcEEE19__move_assign_allocB8ue170006ERS5_, symObjAddr: 0x4450, symBinAddr: 0x100004FB0, symSize: 0x30 }
  - { offsetInCU: 0xE293, offset: 0xE293, size: 0x8, addend: 0x0, symName: __ZNSt3__19allocatorIcE10deallocateB8ue170006EPcm, symObjAddr: 0x4480, symBinAddr: 0x100004FE0, symSize: 0x40 }
  - { offsetInCU: 0xE2D4, offset: 0xE2D4, size: 0x8, addend: 0x0, symName: __ZNSt3__117__compressed_pairINS_12basic_stringIcNS_11char_traitsIcEENS_9allocatorIcEEE5__repES5_E6secondB8ue170006Ev, symObjAddr: 0x44C0, symBinAddr: 0x100005020, symSize: 0x20 }
  - { offsetInCU: 0xE2F9, offset: 0xE2F9, size: 0x8, addend: 0x0, symName: __ZNSt3__122__compressed_pair_elemINS_9allocatorIcEELi1ELb1EE5__getB8ue170006Ev, symObjAddr: 0x44E0, symBinAddr: 0x100005040, symSize: 0x10 }
  - { offsetInCU: 0xE31E, offset: 0xE31E, size: 0x8, addend: 0x0, symName: __ZNSt3__112basic_stringIcNS_11char_traitsIcEENS_9allocatorIcEEE19__move_assign_allocB8ue170006ERS5_NS_17integral_constantIbLb1EEE, symObjAddr: 0x44F0, symBinAddr: 0x100005050, symSize: 0x30 }
  - { offsetInCU: 0xE35E, offset: 0xE35E, size: 0x8, addend: 0x0, symName: __ZNSt3__118__unwrap_iter_implIP11TransactionLb1EE8__unwrapB8ue170006ES2_, symObjAddr: 0x4520, symBinAddr: 0x100005080, symSize: 0x20 }
  - { offsetInCU: 0xE386, offset: 0xE386, size: 0x8, addend: 0x0, symName: __ZNSt3__14pairIP11TransactionS2_EC1B8ue170006IS2_S2_LPv0EEEOT_OT0_, symObjAddr: 0x4540, symBinAddr: 0x1000050A0, symSize: 0x30 }
  - { offsetInCU: 0xE3E3, offset: 0xE3E3, size: 0x8, addend: 0x0, symName: __ZNSt3__14pairIP11TransactionS2_EC2B8ue170006IS2_S2_LPv0EEEOT_OT0_, symObjAddr: 0x4570, symBinAddr: 0x1000050D0, symSize: 0x30 }
  - { offsetInCU: 0xE440, offset: 0xE440, size: 0x8, addend: 0x0, symName: __ZNSt3__118__unwrap_iter_implIP11TransactionLb1EE8__rewrapB8ue170006ES2_S2_, symObjAddr: 0x45A0, symBinAddr: 0x100005100, symSize: 0x60 }
  - { offsetInCU: 0xE471, offset: 0xE471, size: 0x8, addend: 0x0, symName: __ZNSt3__111__wrap_iterIP11TransactionEC1B8ue170006ES2_, symObjAddr: 0x4600, symBinAddr: 0x100005160, symSize: 0x30 }
  - { offsetInCU: 0xE4A8, offset: 0xE4A8, size: 0x8, addend: 0x0, symName: __ZNSt3__111__wrap_iterIP11TransactionEC2B8ue170006ES2_, symObjAddr: 0x4630, symBinAddr: 0x100005190, symSize: 0x20 }
  - { offsetInCU: 0xE4DF, offset: 0xE4DF, size: 0x8, addend: 0x0, symName: __ZNSt3__111__wrap_iterIP11TransactionEpLB8ue170006El, symObjAddr: 0x4650, symBinAddr: 0x1000051B0, symSize: 0x20 }
  - { offsetInCU: 0xE512, offset: 0xE512, size: 0x8, addend: 0x0, symName: __ZNSt3__111__wrap_iterIPK11TransactionEC2B8ue170006IPS1_EERKNS0_IT_EEPNS_9enable_ifIXsr14is_convertibleIS7_S3_EE5valueEvE4typeE, symObjAddr: 0x4670, symBinAddr: 0x1000051D0, symSize: 0x40 }
  - { offsetInCU: 0xE55D, offset: 0xE55D, size: 0x8, addend: 0x0, symName: __ZNKSt3__111__wrap_iterIP11TransactionE4baseB8ue170006Ev, symObjAddr: 0x46B0, symBinAddr: 0x100005210, symSize: 0x20 }
  - { offsetInCU: 0xE582, offset: 0xE582, size: 0x8, addend: 0x0, symName: __ZN17YearBudgetManager20manageBudgetForMonthEi, symObjAddr: 0x46D0, symBinAddr: 0x100005230, symSize: 0x850 }
  - { offsetInCU: 0xE6CF, offset: 0xE6CF, size: 0x8, addend: 0x0, symName: __ZN13BudgetManager18applyFixedExpensesERKNSt3__16vectorI11TransactionNS0_9allocatorIS2_EEEE, symObjAddr: 0x4F20, symBinAddr: 0x100005A80, symSize: 0xE0 }
  - { offsetInCU: 0xE743, offset: 0xE743, size: 0x8, addend: 0x0, symName: __ZNK13BudgetManager19getRemainingBalanceEv, symObjAddr: 0x5000, symBinAddr: 0x100005B60, symSize: 0x20 }
  - { offsetInCU: 0xE768, offset: 0xE768, size: 0x8, addend: 0x0, symName: __ZNK13BudgetManager9getBudgetEv, symObjAddr: 0x5020, symBinAddr: 0x100005B80, symSize: 0x20 }
  - { offsetInCU: 0xE78D, offset: 0xE78D, size: 0x8, addend: 0x0, symName: __ZN13BudgetManager9setBudgetEi, symObjAddr: 0x5040, symBinAddr: 0x100005BA0, symSize: 0x70 }
  - { offsetInCU: 0xE7C0, offset: 0xE7C0, size: 0x8, addend: 0x0, symName: __ZN13BudgetManager9addIncomeERKNSt3__112basic_stringIcNS0_11char_traitsIcEENS0_9allocatorIcEEEEiS8_, symObjAddr: 0x50B0, symBinAddr: 0x100005C10, symSize: 0x160 }
  - { offsetInCU: 0xE80F, offset: 0xE80F, size: 0x8, addend: 0x0, symName: __ZN13BudgetManager10addExpenseERKNSt3__112basic_stringIcNS0_11char_traitsIcEENS0_9allocatorIcEEEEiS8_, symObjAddr: 0x5210, symBinAddr: 0x100005D70, symSize: 0x180 }
  - { offsetInCU: 0xE85E, offset: 0xE85E, size: 0x8, addend: 0x0, symName: __ZNK13BudgetManager16showTransactionsEv, symObjAddr: 0x5390, symBinAddr: 0x100005EF0, symSize: 0x160 }
  - { offsetInCU: 0xE8D5, offset: 0xE8D5, size: 0x8, addend: 0x0, symName: __ZNKSt3__16vectorI11TransactionNS_9allocatorIS1_EEE3endB8ue170006Ev, symObjAddr: 0x54F0, symBinAddr: 0x100006050, symSize: 0x30 }
  - { offsetInCU: 0xE8FC, offset: 0xE8FC, size: 0x8, addend: 0x0, symName: __ZNKSt3__111__wrap_iterIPK11TransactionEdeB8ue170006Ev, symObjAddr: 0x5550, symBinAddr: 0x1000060B0, symSize: 0x20 }
  - { offsetInCU: 0xE921, offset: 0xE921, size: 0x8, addend: 0x0, symName: __ZNSt3__111__wrap_iterIPK11TransactionEppB8ue170006Ev, symObjAddr: 0x5570, symBinAddr: 0x1000060D0, symSize: 0x20 }
  - { offsetInCU: 0xE946, offset: 0xE946, size: 0x8, addend: 0x0, symName: __ZN17YearBudgetManagerD2Ev, symObjAddr: 0x55D0, symBinAddr: 0x100006130, symSize: 0x60 }
  - { offsetInCU: 0xE971, offset: 0xE971, size: 0x8, addend: 0x0, symName: __ZNSt3__16vectorI11TransactionNS_9allocatorIS1_EEED1B8ue170006Ev, symObjAddr: 0x5630, symBinAddr: 0x100006190, symSize: 0x20 }
  - { offsetInCU: 0xE99A, offset: 0xE99A, size: 0x8, addend: 0x0, symName: __ZN13BudgetManagerD1Ev, symObjAddr: 0x5650, symBinAddr: 0x1000061B0, symSize: 0x20 }
  - { offsetInCU: 0xE9C5, offset: 0xE9C5, size: 0x8, addend: 0x0, symName: __ZNSt3__16vectorI11TransactionNS_9allocatorIS1_EEED2B8ue170006Ev, symObjAddr: 0x5670, symBinAddr: 0x1000061D0, symSize: 0x40 }
  - { offsetInCU: 0xE9EE, offset: 0xE9EE, size: 0x8, addend: 0x0, symName: __ZNSt3__16vectorI11TransactionNS_9allocatorIS1_EEE16__destroy_vectorC1B8ue170006ERS4_, symObjAddr: 0x56B0, symBinAddr: 0x100006210, symSize: 0x30 }
  - { offsetInCU: 0xEA26, offset: 0xEA26, size: 0x8, addend: 0x0, symName: __ZNSt3__16vectorI11TransactionNS_9allocatorIS1_EEE16__destroy_vectorclB8ue170006Ev, symObjAddr: 0x56E0, symBinAddr: 0x100006240, symSize: 0x80 }
  - { offsetInCU: 0xEA4B, offset: 0xEA4B, size: 0x8, addend: 0x0, symName: __ZNSt3__16vectorI11TransactionNS_9allocatorIS1_EEE16__destroy_vectorC2B8ue170006ERS4_, symObjAddr: 0x5760, symBinAddr: 0x1000062C0, symSize: 0x20 }
  - { offsetInCU: 0xEA83, offset: 0xEA83, size: 0x8, addend: 0x0, symName: __ZNSt3__16vectorI11TransactionNS_9allocatorIS1_EEE7__clearB8ue170006Ev, symObjAddr: 0x5780, symBinAddr: 0x1000062E0, symSize: 0x20 }
  - { offsetInCU: 0xEAA8, offset: 0xEAA8, size: 0x8, addend: 0x0, symName: __ZN13BudgetManagerD2Ev, symObjAddr: 0x57A0, symBinAddr: 0x100006300, symSize: 0x2C }
...
